; Function Attrs: nounwind uwtable
define internal void @dissect_tx_request_body_value(ptr noundef %0, ptr readnone captures(none) %1) #0 {
  %3 = alloca i32, align 4
  %4 = alloca i32, align 4
  %5 = load i32, ptr @hf_nfapi_number_pdus, align 4
  %6 = call ptr @ptvcursor_add_ret_uint(ptr noundef %0, i32 noundef %5, i32 noundef 2, i32 noundef 0, ptr noundef nonnull %4) #7
  %7 = load i32, ptr @ett_nfapi_tx_request_pdu_list, align 4
  %8 = load i32, ptr %4, align 4
  %.not.i = icmp eq i32 %8, 0
  br i1 %.not.i, label %dissect_array_value.exit, label %9

9:                                                ; preds = %2
  %10 = call ptr (ptr, i32, i32, ptr, ...) @ptvcursor_add_text_with_subtree(ptr noundef %0, i32 noundef -1, i32 noundef %7, ptr noundef nonnull @.str.1839, ptr noundef nonnull @.str.2157) #7
  br label %11

11:                                               ; preds = %11, %9
  %12 = phi i32 [ 0, %9 ], [ %22, %11 ]
  %.016.i = phi i16 [ 0, %9 ], [ %21, %11 ]
  %13 = call ptr (ptr, i32, i32, ptr, ...) @ptvcursor_add_text_with_subtree(ptr noundef %0, i32 noundef -1, i32 noundef %7, ptr noundef nonnull @.str.1840, i32 noundef %12) #7
  call void @llvm.lifetime.start.p0(i64 4, ptr nonnull %3)
  %14 = load i32, ptr @hf_nfapi_pdu_length, align 4
  %15 = call ptr @ptvcursor_add_ret_uint(ptr noundef %0, i32 noundef %14, i32 noundef 2, i32 noundef 0, ptr noundef nonnull %3) #7
  %16 = load i32, ptr @hf_nfapi_pdu_index, align 4
  %17 = call ptr @ptvcursor_add(ptr noundef %0, i32 noundef %16, i32 noundef 2, i32 noundef 0) #7
  %18 = load i32, ptr @hf_nfapi_pdu, align 4
  %19 = load i32, ptr %3, align 4
  %20 = call ptr @ptvcursor_add(ptr noundef %0, i32 noundef %18, i32 noundef %19, i32 noundef 0) #7
  call void @llvm.lifetime.end.p0(i64 4, ptr nonnull %3)
  call void @ptvcursor_pop_subtree(ptr noundef %0) #7
  %21 = add i16 %.016.i, 1
  %22 = zext i16 %21 to i32
  %23 = icmp ugt i32 %8, %22
  br i1 %23, label %11, label %24, !llvm.loop !4

24:                                               ; preds = %11
  call void @ptvcursor_pop_subtree(ptr noundef %0) #7
  br label %dissect_array_value.exit

dissect_array_value.exit:                         ; preds = %2, %24
  ret void
}